; ModuleID = '23/957.c'
source_filename = "23/957.c"
target datalayout = "e-m:e-p270:32:32-p271:32:32-p272:64:64-i64:64-f80:128-n8:16:32:64-S128"
target triple = "x86_64-pc-linux-gnu"

@.str = private unnamed_addr constant [4 x i8] c"%s \00", align 1
@.str.1 = private unnamed_addr constant [3 x i8] c"%s\00", align 1

; Function Attrs: noinline nounwind uwtable
define dso_local i32 @main() #0 {
  %1 = alloca i32, align 4
  %2 = alloca i8*, align 8
  %3 = alloca [20 x i8]*, align 8
  %4 = alloca i32, align 4
  %5 = alloca i32, align 4
  %6 = alloca i32, align 4
  store i32 0, i32* %1, align 4
  store i32 0, i32* %4, align 4
  store i32 0, i32* %5, align 4
  %7 = call noalias i8* @malloc(i64 100) #4
  store i8* %7, i8** %2, align 8
  %8 = call noalias i8* @calloc(i64 50, i64 20) #4
  %9 = bitcast i8* %8 to [20 x i8]*
  store [20 x i8]* %9, [20 x i8]** %3, align 8
  %10 = load i8*, i8** %2, align 8
  %11 = call i32 (i8*, ...) bitcast (i32 (...)* @gets to i32 (i8*, ...)*)(i8* %10)
  store i32 0, i32* %6, align 4
  br label %12

12:                                               ; preds = %46, %0
  %13 = load i32, i32* %6, align 4
  %14 = sext i32 %13 to i64
  %15 = load i8*, i8** %2, align 8
  %16 = call i64 @strlen(i8* %15) #5
  %17 = icmp ult i64 %14, %16
  br i1 %17, label %18, label %49

18:                                               ; preds = %12
  %19 = load i8*, i8** %2, align 8
  %20 = load i32, i32* %6, align 4
  %21 = sext i32 %20 to i64
  %22 = getelementptr inbounds i8, i8* %19, i64 %21
  %23 = load i8, i8* %22, align 1
  %24 = sext i8 %23 to i32
  %25 = icmp ne i32 %24, 32
  br i1 %25, label %26, label %42

26:                                               ; preds = %18
  %27 = load i8*, i8** %2, align 8
  %28 = load i32, i32* %6, align 4
  %29 = sext i32 %28 to i64
  %30 = getelementptr inbounds i8, i8* %27, i64 %29
  %31 = load i8, i8* %30, align 1
  %32 = load [20 x i8]*, [20 x i8]** %3, align 8
  %33 = load i32, i32* %4, align 4
  %34 = sext i32 %33 to i64
  %35 = getelementptr inbounds [20 x i8], [20 x i8]* %32, i64 %34
  %36 = getelementptr inbounds [20 x i8], [20 x i8]* %35, i64 0, i64 0
  %37 = load i32, i32* %5, align 4
  %38 = sext i32 %37 to i64
  %39 = getelementptr inbounds i8, i8* %36, i64 %38
  store i8 %31, i8* %39, align 1
  %40 = load i32, i32* %5, align 4
  %41 = add nsw i32 %40, 1
  store i32 %41, i32* %5, align 4
  br label %45

42:                                               ; preds = %18
  %43 = load i32, i32* %4, align 4
  %44 = add nsw i32 %43, 1
  store i32 %44, i32* %4, align 4
  store i32 0, i32* %5, align 4
  br label %45

45:                                               ; preds = %42, %26
  br label %46

46:                                               ; preds = %45
  %47 = load i32, i32* %6, align 4
  %48 = add nsw i32 %47, 1
  store i32 %48, i32* %6, align 4
  br label %12

49:                                               ; preds = %12
  %50 = load i32, i32* %4, align 4
  store i32 %50, i32* %6, align 4
  br label %51

51:                                               ; preds = %61, %49
  %52 = load i32, i32* %6, align 4
  %53 = icmp sgt i32 %52, 0
  br i1 %53, label %54, label %64

54:                                               ; preds = %51
  %55 = load [20 x i8]*, [20 x i8]** %3, align 8
  %56 = load i32, i32* %6, align 4
  %57 = sext i32 %56 to i64
  %58 = getelementptr inbounds [20 x i8], [20 x i8]* %55, i64 %57
  %59 = getelementptr inbounds [20 x i8], [20 x i8]* %58, i64 0, i64 0
  %60 = call i32 (i8*, ...) @printf(i8* getelementptr inbounds ([4 x i8], [4 x i8]* @.str, i64 0, i64 0), i8* %59)
  br label %61

61:                                               ; preds = %54
  %62 = load i32, i32* %6, align 4
  %63 = add nsw i32 %62, -1
  store i32 %63, i32* %6, align 4
  br label %51

64:                                               ; preds = %51
  %65 = load [20 x i8]*, [20 x i8]** %3, align 8
  %66 = getelementptr inbounds [20 x i8], [20 x i8]* %65, i64 0, i64 0
  %67 = call i32 (i8*, ...) @printf(i8* getelementptr inbounds ([3 x i8], [3 x i8]* @.str.1, i64 0, i64 0), i8* %66)
  %68 = load i32, i32* %1, align 4
  ret i32 %68
}

; Function Attrs: nounwind
declare dso_local noalias i8* @malloc(i64) #1

; Function Attrs: nounwind
declare dso_local noalias i8* @calloc(i64, i64) #1

declare dso_local i32 @gets(...) #2

; Function Attrs: nounwind readonly
declare dso_local i64 @strlen(i8*) #3

declare dso_local i32 @printf(i8*, ...) #2


!llvm.module.flags = !{!0}
!llvm.ident = !{!1}

!0 = !{i32 1, !"wchar_size", i32 4}
!1 = !{!"clang version 10.0.0-4ubuntu1 "}
